; ModuleID = '15/1170.c'
source_filename = "15/1170.c"
target datalayout = "e-m:e-p270:32:32-p271:32:32-p272:64:64-i64:64-f80:128-n8:16:32:64-S128"
target triple = "x86_64-pc-linux-gnu"

@.str = private unnamed_addr constant [3 x i8] c"%d\00", align 1

; Function Attrs: noinline nounwind uwtable
define dso_local void @main() #0 {
  %1 = alloca i32, align 4
  %2 = alloca [1000 x [1000 x i32]], align 16
  %3 = alloca i32, align 4
  %4 = alloca i32, align 4
  %5 = alloca [2 x i32], align 4
  %6 = alloca [2 x i32], align 4
  %7 = alloca [2 x i32], align 4
  %8 = alloca [2 x i32], align 4
  %9 = alloca i32, align 4
  %10 = call i32 (i8*, ...) @__isoc99_scanf(i8* getelementptr inbounds ([3 x i8], [3 x i8]* @.str, i64 0, i64 0), i32* %1)
  store i32 0, i32* %3, align 4
  br label %11

11:                                               ; preds = %32, %0
  %12 = load i32, i32* %3, align 4
  %13 = load i32, i32* %1, align 4
  %14 = icmp slt i32 %12, %13
  br i1 %14, label %15, label %35

15:                                               ; preds = %11
  store i32 0, i32* %4, align 4
  br label %16

16:                                               ; preds = %28, %15
  %17 = load i32, i32* %4, align 4
  %18 = load i32, i32* %1, align 4
  %19 = icmp slt i32 %17, %18
  br i1 %19, label %20, label %31

20:                                               ; preds = %16
  %21 = load i32, i32* %3, align 4
  %22 = sext i32 %21 to i64
  %23 = getelementptr inbounds [1000 x [1000 x i32]], [1000 x [1000 x i32]]* %2, i64 0, i64 %22
  %24 = load i32, i32* %4, align 4
  %25 = sext i32 %24 to i64
  %26 = getelementptr inbounds [1000 x i32], [1000 x i32]* %23, i64 0, i64 %25
  %27 = call i32 (i8*, ...) @__isoc99_scanf(i8* getelementptr inbounds ([3 x i8], [3 x i8]* @.str, i64 0, i64 0), i32* %26)
  br label %28

28:                                               ; preds = %20
  %29 = load i32, i32* %4, align 4
  %30 = add nsw i32 %29, 1
  store i32 %30, i32* %4, align 4
  br label %16

31:                                               ; preds = %16
  br label %32

32:                                               ; preds = %31
  %33 = load i32, i32* %3, align 4
  %34 = add nsw i32 %33, 1
  store i32 %34, i32* %3, align 4
  br label %11

35:                                               ; preds = %11
  store i32 1, i32* %3, align 4
  br label %36

36:                                               ; preds = %230, %35
  %37 = load i32, i32* %3, align 4
  %38 = load i32, i32* %1, align 4
  %39 = icmp slt i32 %37, %38
  br i1 %39, label %40, label %233

40:                                               ; preds = %36
  store i32 1, i32* %4, align 4
  br label %41

41:                                               ; preds = %226, %40
  %42 = load i32, i32* %4, align 4
  %43 = load i32, i32* %1, align 4
  %44 = icmp slt i32 %42, %43
  br i1 %44, label %45, label %229

45:                                               ; preds = %41
  %46 = load i32, i32* %3, align 4
  %47 = sub nsw i32 %46, 1
  %48 = sext i32 %47 to i64
  %49 = getelementptr inbounds [1000 x [1000 x i32]], [1000 x [1000 x i32]]* %2, i64 0, i64 %48
  %50 = load i32, i32* %4, align 4
  %51 = sub nsw i32 %50, 1
  %52 = sext i32 %51 to i64
  %53 = getelementptr inbounds [1000 x i32], [1000 x i32]* %49, i64 0, i64 %52
  %54 = load i32, i32* %53, align 4
  %55 = icmp eq i32 %54, 255
  br i1 %55, label %56, label %90

56:                                               ; preds = %45
  %57 = load i32, i32* %3, align 4
  %58 = sub nsw i32 %57, 1
  %59 = sext i32 %58 to i64
  %60 = getelementptr inbounds [1000 x [1000 x i32]], [1000 x [1000 x i32]]* %2, i64 0, i64 %59
  %61 = load i32, i32* %4, align 4
  %62 = sext i32 %61 to i64
  %63 = getelementptr inbounds [1000 x i32], [1000 x i32]* %60, i64 0, i64 %62
  %64 = load i32, i32* %63, align 4
  %65 = icmp eq i32 %64, 255
  br i1 %65, label %66, label %90

66:                                               ; preds = %56
  %67 = load i32, i32* %3, align 4
  %68 = sext i32 %67 to i64
  %69 = getelementptr inbounds [1000 x [1000 x i32]], [1000 x [1000 x i32]]* %2, i64 0, i64 %68
  %70 = load i32, i32* %4, align 4
  %71 = sub nsw i32 %70, 1
  %72 = sext i32 %71 to i64
  %73 = getelementptr inbounds [1000 x i32], [1000 x i32]* %69, i64 0, i64 %72
  %74 = load i32, i32* %73, align 4
  %75 = icmp eq i32 %74, 255
  br i1 %75, label %76, label %90

76:                                               ; preds = %66
  %77 = load i32, i32* %3, align 4
  %78 = sext i32 %77 to i64
  %79 = getelementptr inbounds [1000 x [1000 x i32]], [1000 x [1000 x i32]]* %2, i64 0, i64 %78
  %80 = load i32, i32* %4, align 4
  %81 = sext i32 %80 to i64
  %82 = getelementptr inbounds [1000 x i32], [1000 x i32]* %79, i64 0, i64 %81
  %83 = load i32, i32* %82, align 4
  %84 = icmp eq i32 %83, 0
  br i1 %84, label %85, label %90

85:                                               ; preds = %76
  %86 = load i32, i32* %3, align 4
  %87 = getelementptr inbounds [2 x i32], [2 x i32]* %5, i64 0, i64 0
  store i32 %86, i32* %87, align 4
  %88 = load i32, i32* %4, align 4
  %89 = getelementptr inbounds [2 x i32], [2 x i32]* %5, i64 0, i64 1
  store i32 %88, i32* %89, align 4
  br label %90

90:                                               ; preds = %85, %76, %66, %56, %45
  %91 = load i32, i32* %3, align 4
  %92 = add nsw i32 %91, 1
  %93 = sext i32 %92 to i64
  %94 = getelementptr inbounds [1000 x [1000 x i32]], [1000 x [1000 x i32]]* %2, i64 0, i64 %93
  %95 = load i32, i32* %4, align 4
  %96 = add nsw i32 %95, 1
  %97 = sext i32 %96 to i64
  %98 = getelementptr inbounds [1000 x i32], [1000 x i32]* %94, i64 0, i64 %97
  %99 = load i32, i32* %98, align 4
  %100 = icmp eq i32 %99, 255
  br i1 %100, label %101, label %135

101:                                              ; preds = %90
  %102 = load i32, i32* %3, align 4
  %103 = add nsw i32 %102, 1
  %104 = sext i32 %103 to i64
  %105 = getelementptr inbounds [1000 x [1000 x i32]], [1000 x [1000 x i32]]* %2, i64 0, i64 %104
  %106 = load i32, i32* %4, align 4
  %107 = sext i32 %106 to i64
  %108 = getelementptr inbounds [1000 x i32], [1000 x i32]* %105, i64 0, i64 %107
  %109 = load i32, i32* %108, align 4
  %110 = icmp eq i32 %109, 255
  br i1 %110, label %111, label %135

111:                                              ; preds = %101
  %112 = load i32, i32* %3, align 4
  %113 = sext i32 %112 to i64
  %114 = getelementptr inbounds [1000 x [1000 x i32]], [1000 x [1000 x i32]]* %2, i64 0, i64 %113
  %115 = load i32, i32* %4, align 4
  %116 = add nsw i32 %115, 1
  %117 = sext i32 %116 to i64
  %118 = getelementptr inbounds [1000 x i32], [1000 x i32]* %114, i64 0, i64 %117
  %119 = load i32, i32* %118, align 4
  %120 = icmp eq i32 %119, 255
  br i1 %120, label %121, label %135

121:                                              ; preds = %111
  %122 = load i32, i32* %3, align 4
  %123 = sext i32 %122 to i64
  %124 = getelementptr inbounds [1000 x [1000 x i32]], [1000 x [1000 x i32]]* %2, i64 0, i64 %123
  %125 = load i32, i32* %4, align 4
  %126 = sext i32 %125 to i64
  %127 = getelementptr inbounds [1000 x i32], [1000 x i32]* %124, i64 0, i64 %126
  %128 = load i32, i32* %127, align 4
  %129 = icmp eq i32 %128, 0
  br i1 %129, label %130, label %135

130:                                              ; preds = %121
  %131 = load i32, i32* %3, align 4
  %132 = getelementptr inbounds [2 x i32], [2 x i32]* %8, i64 0, i64 0
  store i32 %131, i32* %132, align 4
  %133 = load i32, i32* %4, align 4
  %134 = getelementptr inbounds [2 x i32], [2 x i32]* %8, i64 0, i64 1
  store i32 %133, i32* %134, align 4
  br label %135

135:                                              ; preds = %130, %121, %111, %101, %90
  %136 = load i32, i32* %3, align 4
  %137 = sub nsw i32 %136, 1
  %138 = sext i32 %137 to i64
  %139 = getelementptr inbounds [1000 x [1000 x i32]], [1000 x [1000 x i32]]* %2, i64 0, i64 %138
  %140 = load i32, i32* %4, align 4
  %141 = add nsw i32 %140, 1
  %142 = sext i32 %141 to i64
  %143 = getelementptr inbounds [1000 x i32], [1000 x i32]* %139, i64 0, i64 %142
  %144 = load i32, i32* %143, align 4
  %145 = icmp eq i32 %144, 255
  br i1 %145, label %146, label %180

146:                                              ; preds = %135
  %147 = load i32, i32* %3, align 4
  %148 = sub nsw i32 %147, 1
  %149 = sext i32 %148 to i64
  %150 = getelementptr inbounds [1000 x [1000 x i32]], [1000 x [1000 x i32]]* %2, i64 0, i64 %149
  %151 = load i32, i32* %4, align 4
  %152 = sext i32 %151 to i64
  %153 = getelementptr inbounds [1000 x i32], [1000 x i32]* %150, i64 0, i64 %152
  %154 = load i32, i32* %153, align 4
  %155 = icmp eq i32 %154, 255
  br i1 %155, label %156, label %180

156:                                              ; preds = %146
  %157 = load i32, i32* %3, align 4
  %158 = sext i32 %157 to i64
  %159 = getelementptr inbounds [1000 x [1000 x i32]], [1000 x [1000 x i32]]* %2, i64 0, i64 %158
  %160 = load i32, i32* %4, align 4
  %161 = add nsw i32 %160, 1
  %162 = sext i32 %161 to i64
  %163 = getelementptr inbounds [1000 x i32], [1000 x i32]* %159, i64 0, i64 %162
  %164 = load i32, i32* %163, align 4
  %165 = icmp eq i32 %164, 255
  br i1 %165, label %166, label %180

166:                                              ; preds = %156
  %167 = load i32, i32* %3, align 4
  %168 = sext i32 %167 to i64
  %169 = getelementptr inbounds [1000 x [1000 x i32]], [1000 x [1000 x i32]]* %2, i64 0, i64 %168
  %170 = load i32, i32* %4, align 4
  %171 = sext i32 %170 to i64
  %172 = getelementptr inbounds [1000 x i32], [1000 x i32]* %169, i64 0, i64 %171
  %173 = load i32, i32* %172, align 4
  %174 = icmp eq i32 %173, 0
  br i1 %174, label %175, label %180

175:                                              ; preds = %166
  %176 = load i32, i32* %3, align 4
  %177 = getelementptr inbounds [2 x i32], [2 x i32]* %6, i64 0, i64 0
  store i32 %176, i32* %177, align 4
  %178 = load i32, i32* %4, align 4
  %179 = getelementptr inbounds [2 x i32], [2 x i32]* %6, i64 0, i64 1
  store i32 %178, i32* %179, align 4
  br label %180

180:                                              ; preds = %175, %166, %156, %146, %135
  %181 = load i32, i32* %3, align 4
  %182 = add nsw i32 %181, 1
  %183 = sext i32 %182 to i64
  %184 = getelementptr inbounds [1000 x [1000 x i32]], [1000 x [1000 x i32]]* %2, i64 0, i64 %183
  %185 = load i32, i32* %4, align 4
  %186 = sub nsw i32 %185, 1
  %187 = sext i32 %186 to i64
  %188 = getelementptr inbounds [1000 x i32], [1000 x i32]* %184, i64 0, i64 %187
  %189 = load i32, i32* %188, align 4
  %190 = icmp eq i32 %189, 255
  br i1 %190, label %191, label %225

191:                                              ; preds = %180
  %192 = load i32, i32* %3, align 4
  %193 = add nsw i32 %192, 1
  %194 = sext i32 %193 to i64
  %195 = getelementptr inbounds [1000 x [1000 x i32]], [1000 x [1000 x i32]]* %2, i64 0, i64 %194
  %196 = load i32, i32* %4, align 4
  %197 = sext i32 %196 to i64
  %198 = getelementptr inbounds [1000 x i32], [1000 x i32]* %195, i64 0, i64 %197
  %199 = load i32, i32* %198, align 4
  %200 = icmp eq i32 %199, 255
  br i1 %200, label %201, label %225

201:                                              ; preds = %191
  %202 = load i32, i32* %3, align 4
  %203 = sext i32 %202 to i64
  %204 = getelementptr inbounds [1000 x [1000 x i32]], [1000 x [1000 x i32]]* %2, i64 0, i64 %203
  %205 = load i32, i32* %4, align 4
  %206 = sub nsw i32 %205, 1
  %207 = sext i32 %206 to i64
  %208 = getelementptr inbounds [1000 x i32], [1000 x i32]* %204, i64 0, i64 %207
  %209 = load i32, i32* %208, align 4
  %210 = icmp eq i32 %209, 255
  br i1 %210, label %211, label %225

211:                                              ; preds = %201
  %212 = load i32, i32* %3, align 4
  %213 = sext i32 %212 to i64
  %214 = getelementptr inbounds [1000 x [1000 x i32]], [1000 x [1000 x i32]]* %2, i64 0, i64 %213
  %215 = load i32, i32* %4, align 4
  %216 = sext i32 %215 to i64
  %217 = getelementptr inbounds [1000 x i32], [1000 x i32]* %214, i64 0, i64 %216
  %218 = load i32, i32* %217, align 4
  %219 = icmp eq i32 %218, 0
  br i1 %219, label %220, label %225

220:                                              ; preds = %211
  %221 = load i32, i32* %3, align 4
  %222 = getelementptr inbounds [2 x i32], [2 x i32]* %7, i64 0, i64 0
  store i32 %221, i32* %222, align 4
  %223 = load i32, i32* %4, align 4
  %224 = getelementptr inbounds [2 x i32], [2 x i32]* %7, i64 0, i64 1
  store i32 %223, i32* %224, align 4
  br label %225

225:                                              ; preds = %220, %211, %201, %191, %180
  br label %226

226:                                              ; preds = %225
  %227 = load i32, i32* %4, align 4
  %228 = add nsw i32 %227, 1
  store i32 %228, i32* %4, align 4
  br label %41

229:                                              ; preds = %41
  br label %230

230:                                              ; preds = %229
  %231 = load i32, i32* %3, align 4
  %232 = add nsw i32 %231, 1
  store i32 %232, i32* %3, align 4
  br label %36

233:                                              ; preds = %36
  %234 = getelementptr inbounds [2 x i32], [2 x i32]* %7, i64 0, i64 0
  %235 = load i32, i32* %234, align 4
  %236 = getelementptr inbounds [2 x i32], [2 x i32]* %5, i64 0, i64 0
  %237 = load i32, i32* %236, align 4
  %238 = sub nsw i32 %235, %237
  %239 = sub nsw i32 %238, 1
  %240 = getelementptr inbounds [2 x i32], [2 x i32]* %8, i64 0, i64 1
  %241 = load i32, i32* %240, align 4
  %242 = getelementptr inbounds [2 x i32], [2 x i32]* %7, i64 0, i64 1
  %243 = load i32, i32* %242, align 4
  %244 = sub nsw i32 %241, %243
  %245 = sub nsw i32 %244, 1
  %246 = mul nsw i32 %239, %245
  store i32 %246, i32* %9, align 4
  %247 = load i32, i32* %9, align 4
  %248 = call i32 (i8*, ...) @printf(i8* getelementptr inbounds ([3 x i8], [3 x i8]* @.str, i64 0, i64 0), i32 %247)
  ret void
}

declare dso_local i32 @__isoc99_scanf(i8*, ...) #1

declare dso_local i32 @printf(i8*, ...) #1


!llvm.module.flags = !{!0}
!llvm.ident = !{!1}

!0 = !{i32 1, !"wchar_size", i32 4}
!1 = !{!"clang version 10.0.0-4ubuntu1 "}
